; Function Attrs: alwaysinline norecurse nounwind uwtable
define internal void @_ZNK4ncnn9PReLU_x8615forward_inplaceERNS_3MatERKNS_6OptionE.omp_outlined.1(ptr noalias noundef readonly captures(none) %0, ptr noalias readnone captures(none) %1, ptr noundef nonnull readonly align 4 captures(none) dereferenceable(4) %2, ptr noundef nonnull readonly align 4 captures(none) dereferenceable(4) %3, ptr noundef nonnull readonly align 8 captures(none) dereferenceable(8) %4, ptr noundef readonly captures(none) %5) #9 personality ptr @__gxx_personality_v0 {
  %7 = alloca i32, align 4
  %8 = alloca i32, align 4
  %9 = alloca i32, align 4
  %10 = alloca i32, align 4
  %11 = load i32, ptr %3, align 4, !tbaa !21
  %12 = load i32, ptr %2, align 4, !tbaa !21
  %13 = icmp slt i32 %11, %12
  br i1 %13, label %14, label %38

14:                                               ; preds = %6
  %15 = xor i32 %11, -1
  %16 = add i32 %12, %15
  call void @llvm.lifetime.start.p0(i64 4, ptr nonnull %7) #6
  store i32 0, ptr %7, align 4, !tbaa !21
  call void @llvm.lifetime.start.p0(i64 4, ptr nonnull %8) #6
  store i32 %16, ptr %8, align 4, !tbaa !21
  call void @llvm.lifetime.start.p0(i64 4, ptr nonnull %9) #6
  store i32 1, ptr %9, align 4, !tbaa !21
  call void @llvm.lifetime.start.p0(i64 4, ptr nonnull %10) #6
  store i32 0, ptr %10, align 4, !tbaa !21
  %17 = load i32, ptr %0, align 4, !tbaa !21
  call void @__kmpc_for_static_init_4u(ptr nonnull @1, i32 %17, i32 34, ptr nonnull %10, ptr nonnull %7, ptr nonnull %8, ptr nonnull %9, i32 1, i32 1)
  %18 = load i32, ptr %8, align 4, !tbaa !21
  %19 = call i32 @llvm.umin.i32(i32 %18, i32 %16)
  store i32 %19, ptr %8, align 4, !tbaa !21
  %20 = load i32, ptr %7, align 4, !tbaa !21
  %21 = add i32 %19, 1
  %22 = icmp ult i32 %20, %21
  br i1 %22, label %.lr.ph, label %._crit_edge

.lr.ph:                                           ; preds = %14
  %23 = load ptr, ptr %4, align 8, !tbaa !40
  %24 = getelementptr inbounds nuw i8, ptr %5, i64 216
  br label %25

25:                                               ; preds = %.lr.ph, %36
  %.021 = phi i32 [ %20, %.lr.ph ], [ %37, %36 ]
  %26 = add i32 %.021, %11
  %27 = sext i32 %26 to i64
  %28 = getelementptr inbounds float, ptr %23, i64 %27
  %29 = load float, ptr %28, align 4, !tbaa !44
  %30 = fcmp fast olt float %29, 0.000000e+00
  br i1 %30, label %31, label %36

31:                                               ; preds = %25
  %32 = load ptr, ptr %24, align 8, !tbaa !16
  %33 = getelementptr inbounds nuw float, ptr %32, i64 %27
  %34 = load float, ptr %33, align 4, !tbaa !44
  %35 = fmul fast float %34, %29
  store float %35, ptr %28, align 4, !tbaa !44
  br label %36

36:                                               ; preds = %31, %25
  %37 = add nuw i32 %.021, 1
  %exitcond.not = icmp eq i32 %.021, %19
  br i1 %exitcond.not, label %._crit_edge, label %25

._crit_edge:                                      ; preds = %36, %14
  call void @__kmpc_for_static_fini(ptr nonnull @1, i32 %17)
  call void @llvm.lifetime.end.p0(i64 4, ptr nonnull %10) #6
  call void @llvm.lifetime.end.p0(i64 4, ptr nonnull %9) #6
  call void @llvm.lifetime.end.p0(i64 4, ptr nonnull %8) #6
  call void @llvm.lifetime.end.p0(i64 4, ptr nonnull %7) #6
  br label %38

38:                                               ; preds = %._crit_edge, %6
  ret void
}